; Function Attrs: mustprogress nofree norecurse nosync nounwind null_pointer_is_valid sspstrong willreturn memory(argmem: write) uwtable
define hidden void @file_clearerr(ptr noundef writeonly captures(none) initializes((80, 81), (132, 144)) %0) local_unnamed_addr #10 {
  %2 = getelementptr inbounds nuw i8, ptr %0, i64 132
  store i32 0, ptr %2, align 4
  %3 = getelementptr inbounds nuw i8, ptr %0, i64 136
  store ptr null, ptr %3, align 8
  %4 = getelementptr inbounds nuw i8, ptr %0, i64 80
  store i8 0, ptr %4, align 8
  ret void
}